target datalayout = "e-m:e-p270:32:32-p271:32:32-p272:64:64-i64:64-i128:128-f80:128-n8:16:32:64-S128"
target triple = "x86_64-pc-linux-gnu"

%struct.TuplesortPublic = type { ptr, ptr, ptr, ptr, ptr, ptr, ptr, ptr, ptr, i8, i32, ptr, ptr, i32, i8, ptr }
%struct.SortSupportData = type { ptr, i32, i8, i8, i16, ptr, ptr, i8, ptr, ptr, ptr }
%struct.SortTuple = type { ptr, i64, i8, i32 }
%struct.TuplesortDatumArg = type { i32, i32 }

@CurrentMemoryContext = external global ptr, align 8

; Function Attrs: inlinehint nounwind uwtable
define internal i64 @PointerGetDatum(ptr noundef %0) #3 {
  %2 = alloca ptr, align 8
  store ptr %0, ptr %2, align 8
  %3 = load ptr, ptr %2, align 8
  %4 = ptrtoint ptr %3 to i64
  ret i64 %4
}

; Function Attrs: inlinehint nounwind uwtable
define internal ptr @MemoryContextSwitchTo(ptr noundef %0) #3 {
  %2 = alloca ptr, align 8
  %3 = alloca ptr, align 8
  store ptr %0, ptr %2, align 8
  call void @llvm.lifetime.start.p0(i64 8, ptr %3) #6
  %4 = load ptr, ptr @CurrentMemoryContext, align 8
  store ptr %4, ptr %3, align 8
  %5 = load ptr, ptr %2, align 8
  store ptr %5, ptr @CurrentMemoryContext, align 8
  %6 = load ptr, ptr %3, align 8
  call void @llvm.lifetime.end.p0(i64 8, ptr %3) #6
  ret ptr %6
}

; Function Attrs: nounwind uwtable
define dso_local zeroext i1 @tuplesort_getdatum(ptr noundef %0, i1 noundef zeroext %1, i1 noundef zeroext %2, ptr noundef %3, ptr noundef %4, ptr noundef %5) #0 {
  %7 = alloca i1, align 1
  %8 = alloca ptr, align 8
  %9 = alloca i8, align 1
  %10 = alloca i8, align 1
  %11 = alloca ptr, align 8
  %12 = alloca ptr, align 8
  %13 = alloca ptr, align 8
  %14 = alloca ptr, align 8
  %15 = alloca ptr, align 8
  %16 = alloca ptr, align 8
  %17 = alloca %struct.SortTuple, align 8
  %18 = alloca i32, align 4
  store ptr %0, ptr %8, align 8
  %19 = zext i1 %1 to i8
  store i8 %19, ptr %9, align 1
  %20 = zext i1 %2 to i8
  store i8 %20, ptr %10, align 1
  store ptr %3, ptr %11, align 8
  store ptr %4, ptr %12, align 8
  store ptr %5, ptr %13, align 8
  call void @llvm.lifetime.start.p0(i64 8, ptr %14) #6
  %21 = load ptr, ptr %8, align 8
  store ptr %21, ptr %14, align 8
  call void @llvm.lifetime.start.p0(i64 8, ptr %15) #6
  %22 = load ptr, ptr %14, align 8
  %23 = getelementptr inbounds nuw %struct.TuplesortPublic, ptr %22, i32 0, i32 7
  %24 = load ptr, ptr %23, align 8
  %25 = call ptr @MemoryContextSwitchTo(ptr noundef %24)
  store ptr %25, ptr %15, align 8
  call void @llvm.lifetime.start.p0(i64 8, ptr %16) #6
  %26 = load ptr, ptr %14, align 8
  %27 = getelementptr inbounds nuw %struct.TuplesortPublic, ptr %26, i32 0, i32 15
  %28 = load ptr, ptr %27, align 8
  store ptr %28, ptr %16, align 8
  call void @llvm.lifetime.start.p0(i64 24, ptr %17) #6
  %29 = load ptr, ptr %8, align 8
  %30 = load i8, ptr %9, align 1, !range !4, !noundef !5
  %31 = trunc i8 %30 to i1
  %32 = call zeroext i1 @tuplesort_gettuple_common(ptr noundef %29, i1 noundef zeroext %31, ptr noundef %17)
  br i1 %32, label %36, label %33

33:                                               ; preds = %6
  %34 = load ptr, ptr %15, align 8
  %35 = call ptr @MemoryContextSwitchTo(ptr noundef %34)
  store i1 false, ptr %7, align 1
  store i32 1, ptr %18, align 4
  br label %90

36:                                               ; preds = %6
  %37 = load ptr, ptr %15, align 8
  %38 = call ptr @MemoryContextSwitchTo(ptr noundef %37)
  %39 = load ptr, ptr %14, align 8
  %40 = getelementptr inbounds nuw %struct.TuplesortPublic, ptr %39, i32 0, i32 11
  %41 = load ptr, ptr %40, align 8
  %42 = getelementptr inbounds nuw %struct.SortSupportData, ptr %41, i32 0, i32 8
  %43 = load ptr, ptr %42, align 8
  %44 = icmp ne ptr %43, null
  br i1 %44, label %45, label %52

45:                                               ; preds = %36
  %46 = load ptr, ptr %13, align 8
  %47 = icmp ne ptr %46, null
  br i1 %47, label %48, label %52

48:                                               ; preds = %45
  %49 = getelementptr inbounds nuw %struct.SortTuple, ptr %17, i32 0, i32 1
  %50 = load i64, ptr %49, align 8
  %51 = load ptr, ptr %13, align 8
  store i64 %50, ptr %51, align 8
  br label %52

52:                                               ; preds = %48, %45, %36
  %53 = getelementptr inbounds nuw %struct.SortTuple, ptr %17, i32 0, i32 2
  %54 = load i8, ptr %53, align 8, !range !4, !noundef !5
  %55 = trunc i8 %54 to i1
  br i1 %55, label %61, label %56

56:                                               ; preds = %52
  %57 = load ptr, ptr %14, align 8
  %58 = getelementptr inbounds nuw %struct.TuplesortPublic, ptr %57, i32 0, i32 14
  %59 = load i8, ptr %58, align 4, !range !4, !noundef !5
  %60 = trunc i8 %59 to i1
  br i1 %60, label %70, label %61

61:                                               ; preds = %56, %52
  %62 = getelementptr inbounds nuw %struct.SortTuple, ptr %17, i32 0, i32 1
  %63 = load i64, ptr %62, align 8
  %64 = load ptr, ptr %11, align 8
  store i64 %63, ptr %64, align 8
  %65 = getelementptr inbounds nuw %struct.SortTuple, ptr %17, i32 0, i32 2
  %66 = load i8, ptr %65, align 8, !range !4, !noundef !5
  %67 = trunc i8 %66 to i1
  %68 = load ptr, ptr %12, align 8
  %69 = zext i1 %67 to i8
  store i8 %69, ptr %68, align 1
  br label %89

70:                                               ; preds = %56
  %71 = load i8, ptr %10, align 1, !range !4, !noundef !5
  %72 = trunc i8 %71 to i1
  br i1 %72, label %73, label %82

73:                                               ; preds = %70
  %74 = getelementptr inbounds nuw %struct.SortTuple, ptr %17, i32 0, i32 0
  %75 = load ptr, ptr %74, align 8
  %76 = call i64 @PointerGetDatum(ptr noundef %75)
  %77 = load ptr, ptr %16, align 8
  %78 = getelementptr inbounds nuw %struct.TuplesortDatumArg, ptr %77, i32 0, i32 1
  %79 = load i32, ptr %78, align 4
  %80 = call i64 @datumCopy(i64 noundef %76, i1 noundef zeroext false, i32 noundef %79)
  %81 = load ptr, ptr %11, align 8
  store i64 %80, ptr %81, align 8
  br label %87

82:                                               ; preds = %70
  %83 = getelementptr inbounds nuw %struct.SortTuple, ptr %17, i32 0, i32 0
  %84 = load ptr, ptr %83, align 8
  %85 = call i64 @PointerGetDatum(ptr noundef %84)
  %86 = load ptr, ptr %11, align 8
  store i64 %85, ptr %86, align 8
  br label %87

87:                                               ; preds = %82, %73
  %88 = load ptr, ptr %12, align 8
  store i8 0, ptr %88, align 1
  br label %89

89:                                               ; preds = %87, %61
  store i1 true, ptr %7, align 1
  store i32 1, ptr %18, align 4
  br label %90

90:                                               ; preds = %89, %33
  call void @llvm.lifetime.end.p0(i64 24, ptr %17) #6
  call void @llvm.lifetime.end.p0(i64 8, ptr %16) #6
  call void @llvm.lifetime.end.p0(i64 8, ptr %15) #6
  call void @llvm.lifetime.end.p0(i64 8, ptr %14) #6
  %91 = load i1, ptr %7, align 1
  ret i1 %91
}