; Function Attrs: nounwind uwtable
define dso_local noundef zeroext i1 @tuplesort_getdatum(ptr noundef %0, i1 noundef zeroext %1, i1 noundef zeroext %2, ptr noundef writeonly captures(none) %3, ptr noundef writeonly captures(none) %4, ptr noundef writeonly captures(address_is_null) %5) local_unnamed_addr #0 {
  %7 = alloca %struct.SortTuple, align 8
  %8 = getelementptr inbounds nuw i8, ptr %0, i64 56
  %9 = load ptr, ptr %8, align 8
  %10 = load ptr, ptr @CurrentMemoryContext, align 8
  store ptr %9, ptr @CurrentMemoryContext, align 8
  %11 = getelementptr inbounds nuw i8, ptr %0, i64 104
  %12 = load ptr, ptr %11, align 8
  call void @llvm.lifetime.start.p0(i64 24, ptr nonnull %7) #12
  %13 = call zeroext i1 @tuplesort_gettuple_common(ptr noundef %0, i1 noundef zeroext %1, ptr noundef nonnull %7) #12
  store ptr %10, ptr @CurrentMemoryContext, align 8
  br i1 %13, label %14, label %43

14:                                               ; preds = %6
  %15 = getelementptr inbounds nuw i8, ptr %0, i64 80
  %16 = load ptr, ptr %15, align 8
  %17 = getelementptr inbounds nuw i8, ptr %16, i64 40
  %18 = load ptr, ptr %17, align 8
  %19 = icmp ne ptr %18, null
  %20 = icmp ne ptr %5, null
  %or.cond = and i1 %20, %19
  br i1 %or.cond, label %21, label %24

21:                                               ; preds = %14
  %22 = getelementptr inbounds nuw i8, ptr %7, i64 8
  %23 = load i64, ptr %22, align 8
  store i64 %23, ptr %5, align 8
  br label %24

24:                                               ; preds = %21, %14
  %25 = getelementptr inbounds nuw i8, ptr %7, i64 16
  %26 = load i8, ptr %25, align 8, !range !4, !noundef !5
  %27 = trunc nuw i8 %26 to i1
  br i1 %27, label %32, label %28

28:                                               ; preds = %24
  %29 = getelementptr inbounds nuw i8, ptr %0, i64 100
  %30 = load i8, ptr %29, align 4, !range !4, !noundef !5
  %31 = trunc nuw i8 %30 to i1
  br i1 %31, label %35, label %32

32:                                               ; preds = %28, %24
  %33 = getelementptr inbounds nuw i8, ptr %7, i64 8
  %34 = load i64, ptr %33, align 8
  br label %42

35:                                               ; preds = %28
  %36 = load ptr, ptr %7, align 8
  %37 = ptrtoint ptr %36 to i64
  br i1 %2, label %38, label %42

38:                                               ; preds = %35
  %39 = getelementptr inbounds nuw i8, ptr %12, i64 4
  %40 = load i32, ptr %39, align 4
  %41 = call i64 @datumCopy(i64 noundef %37, i1 noundef zeroext false, i32 noundef %40) #12
  br label %42

42:                                               ; preds = %35, %38, %32
  %storemerge21 = phi i64 [ %34, %32 ], [ %41, %38 ], [ %37, %35 ]
  store i64 %storemerge21, ptr %3, align 8
  store i8 %26, ptr %4, align 1
  br label %43

43:                                               ; preds = %6, %42
  call void @llvm.lifetime.end.p0(i64 24, ptr nonnull %7) #12
  ret i1 %13
}